target datalayout = "e-m:e-p270:32:32-p271:32:32-p272:64:64-i64:64-i128:128-f80:128-n8:16:32:64-S128"
target triple = "x86_64-pc-linux-gnu"

%"class.llvm::SmallVectorBase" = type { ptr, i32, i32 }
%"struct.llvm::detail::PunnedPointer" = type { [8 x i8] }
%"class.llvm::DebugHandlerBase" = type { ptr, ptr, ptr, %"class.llvm::DebugLoc", ptr, ptr, %"class.llvm::DebugLoc", ptr, ptr, %"class.llvm::LexicalScopes", %"class.llvm::DbgValueHistoryMap", %"class.llvm::DbgLabelInstrMap", %"class.llvm::DenseMap.186", %"class.llvm::DenseMap.186", %"class.llvm::InstructionOrdering" }
%"class.llvm::DebugLoc" = type { %"class.llvm::TypedTrackingMDRef" }
%"class.llvm::TypedTrackingMDRef" = type { %"class.llvm::TrackingMDRef" }
%"class.llvm::TrackingMDRef" = type { ptr }
%"class.llvm::LexicalScopes" = type { ptr, %"class.std::unordered_map", %"class.std::unordered_map.149", %"class.std::unordered_map", %"class.llvm::SmallVector.167", ptr, %"class.llvm::DenseMap" }
%"class.std::unordered_map.149" = type { %"class.std::_Hashtable.150" }
%"class.std::_Hashtable.150" = type { ptr, i64, %"struct.std::__detail::_Hash_node_base", i64, %"struct.std::__detail::_Prime_rehash_policy", ptr }
%"struct.std::__detail::_Hash_node_base" = type { ptr }
%"struct.std::__detail::_Prime_rehash_policy" = type { float, i64 }
%"class.std::unordered_map" = type { %"class.std::_Hashtable" }
%"class.std::_Hashtable" = type { ptr, i64, %"struct.std::__detail::_Hash_node_base", i64, %"struct.std::__detail::_Prime_rehash_policy", ptr }
%"class.llvm::SmallVector.167" = type { %"class.llvm::SmallVectorImpl.168", %"struct.llvm::SmallVectorStorage.171" }
%"class.llvm::SmallVectorImpl.168" = type { %"class.llvm::SmallVectorTemplateBase.169" }
%"class.llvm::SmallVectorTemplateBase.169" = type { %"class.llvm::SmallVectorTemplateCommon.170" }
%"class.llvm::SmallVectorTemplateCommon.170" = type { %"class.llvm::SmallVectorBase" }
%"struct.llvm::SmallVectorStorage.171" = type { [32 x i8] }
%"class.llvm::DenseMap" = type <{ ptr, i32, i32, i32, [4 x i8] }>
%"class.llvm::DbgValueHistoryMap" = type { %"class.llvm::MapVector" }
%"class.llvm::MapVector" = type { %"class.llvm::DenseMap.172", %"class.llvm::SmallVector.175" }
%"class.llvm::DenseMap.172" = type <{ ptr, i32, i32, i32, [4 x i8] }>
%"class.llvm::SmallVector.175" = type { %"class.llvm::SmallVectorImpl.176" }
%"class.llvm::SmallVectorImpl.176" = type { %"class.llvm::SmallVectorTemplateBase.177" }
%"class.llvm::SmallVectorTemplateBase.177" = type { %"class.llvm::SmallVectorTemplateCommon.178" }
%"class.llvm::SmallVectorTemplateCommon.178" = type { %"class.llvm::SmallVectorBase" }
%"class.llvm::DbgLabelInstrMap" = type { %"class.llvm::MapVector.180" }
%"class.llvm::MapVector.180" = type { %"class.llvm::DenseMap.172", %"class.llvm::SmallVector.181" }
%"class.llvm::SmallVector.181" = type { %"class.llvm::SmallVectorImpl.182" }
%"class.llvm::SmallVectorImpl.182" = type { %"class.llvm::SmallVectorTemplateBase.183" }
%"class.llvm::SmallVectorTemplateBase.183" = type { %"class.llvm::SmallVectorTemplateCommon.184" }
%"class.llvm::SmallVectorTemplateCommon.184" = type { %"class.llvm::SmallVectorBase" }
%"class.llvm::DenseMap.186" = type <{ ptr, i32, i32, i32, [4 x i8] }>
%"class.llvm::InstructionOrdering" = type { %"class.llvm::DenseMap.189" }
%"class.llvm::DenseMap.189" = type <{ ptr, i32, i32, i32, [4 x i8] }>
%"class.llvm::BumpPtrAllocatorImpl" = type { ptr, ptr, %"class.llvm::SmallVector.193", %"class.llvm::SmallVector.198", i64, i64 }
%"class.llvm::SmallVector.193" = type { %"class.llvm::SmallVectorImpl.194", %"struct.llvm::SmallVectorStorage.197" }
%"class.llvm::SmallVectorImpl.194" = type { %"class.llvm::SmallVectorTemplateBase.195" }
%"class.llvm::SmallVectorTemplateBase.195" = type { %"class.llvm::SmallVectorTemplateCommon.196" }
%"class.llvm::SmallVectorTemplateCommon.196" = type { %"class.llvm::SmallVectorBase" }
%"struct.llvm::SmallVectorStorage.197" = type { [32 x i8] }
%"class.llvm::SmallVector.198" = type { %"class.llvm::SmallVectorImpl.199" }
%"class.llvm::SmallVectorImpl.199" = type { %"class.llvm::SmallVectorTemplateBase.200" }
%"class.llvm::SmallVectorTemplateBase.200" = type { %"class.llvm::SmallVectorTemplateCommon.201" }
%"class.llvm::SmallVectorTemplateCommon.201" = type { %"class.llvm::SmallVectorBase" }
%"class.llvm::DenseMap.280" = type <{ ptr, i32, i32, i32, [4 x i8] }>
%"class.llvm::AsmPrinter" = type <{ %"class.llvm::MachineFunctionPass", ptr, ptr, ptr, %"class.std::unique_ptr.349", ptr, ptr, ptr, ptr, ptr, ptr, ptr, ptr, ptr, %"class.llvm::MapVector.357", %"class.llvm::MapVector.366", ptr, %"class.llvm::DenseMap.375", ptr, %"class.std::unique_ptr.378", %"class.llvm::DenseMap.386", i8, [7 x i8], %"class.std::unique_ptr.389", %"class.llvm::DenseMap.397", ptr, ptr, %"class.llvm::SmallVector.400", i64, %"class.llvm::SmallVector.405", i64, %"class.llvm::StackMaps", %"class.std::unique_ptr.430", %"class.std::unique_ptr.438", ptr, %"class.std::unique_ptr.446", i32, i8, i8, i8, i8, %"class.llvm::SmallVector.454", ptr, i32, i32, i8, [7 x i8] }>
%"class.llvm::MachineFunctionPass" = type { %"class.llvm::FunctionPass.base", %"class.llvm::MachineFunctionProperties", %"class.llvm::MachineFunctionProperties", %"class.llvm::MachineFunctionProperties" }
%"class.llvm::FunctionPass.base" = type { %"class.llvm::Pass.base" }
%"class.llvm::Pass.base" = type <{ ptr, ptr, ptr, i32 }>
%"class.llvm::MachineFunctionProperties" = type { %"class.std::bitset" }
%"class.std::bitset" = type { %"struct.std::_Base_bitset" }
%"struct.std::_Base_bitset" = type { i64 }
%"class.std::unique_ptr.349" = type { %"struct.std::__uniq_ptr_data.350" }
%"struct.std::__uniq_ptr_data.350" = type { %"class.std::__uniq_ptr_impl.351" }
%"class.std::__uniq_ptr_impl.351" = type { %"class.std::tuple.352" }
%"class.std::tuple.352" = type { %"struct.std::_Tuple_impl.353" }
%"struct.std::_Tuple_impl.353" = type { %"struct.std::_Head_base.356" }
%"struct.std::_Head_base.356" = type { ptr }
%"class.llvm::MapVector.357" = type { %"class.llvm::DenseMap.358", %"class.llvm::SmallVector.361" }
%"class.llvm::DenseMap.358" = type <{ ptr, i32, i32, i32, [4 x i8] }>
%"class.llvm::SmallVector.361" = type { %"class.llvm::SmallVectorImpl.362" }
%"class.llvm::SmallVectorImpl.362" = type { %"class.llvm::SmallVectorTemplateBase.363" }
%"class.llvm::SmallVectorTemplateBase.363" = type { %"class.llvm::SmallVectorTemplateCommon.364" }
%"class.llvm::SmallVectorTemplateCommon.364" = type { %"class.llvm::SmallVectorBase" }
%"class.llvm::MapVector.366" = type { %"class.llvm::DenseMap.367", %"class.llvm::SmallVector.370" }
%"class.llvm::DenseMap.367" = type <{ ptr, i32, i32, i32, [4 x i8] }>
%"class.llvm::SmallVector.370" = type { %"class.llvm::SmallVectorImpl.371" }
%"class.llvm::SmallVectorImpl.371" = type { %"class.llvm::SmallVectorTemplateBase.372" }
%"class.llvm::SmallVectorTemplateBase.372" = type { %"class.llvm::SmallVectorTemplateCommon.373" }
%"class.llvm::SmallVectorTemplateCommon.373" = type { %"class.llvm::SmallVectorBase" }
%"class.llvm::DenseMap.375" = type <{ ptr, i32, i32, i32, [4 x i8] }>
%"class.std::unique_ptr.378" = type { %"struct.std::__uniq_ptr_data.379" }
%"struct.std::__uniq_ptr_data.379" = type { %"class.std::__uniq_ptr_impl.380" }
%"class.std::__uniq_ptr_impl.380" = type { %"class.std::tuple.381" }
%"class.std::tuple.381" = type { %"struct.std::_Tuple_impl.382" }
%"struct.std::_Tuple_impl.382" = type { %"struct.std::_Head_base.385" }
%"struct.std::_Head_base.385" = type { ptr }
%"class.llvm::DenseMap.386" = type <{ ptr, i32, i32, i32, [4 x i8] }>
%"class.std::unique_ptr.389" = type { %"struct.std::__uniq_ptr_data.390" }
%"struct.std::__uniq_ptr_data.390" = type { %"class.std::__uniq_ptr_impl.391" }
%"class.std::__uniq_ptr_impl.391" = type { %"class.std::tuple.392" }
%"class.std::tuple.392" = type { %"struct.std::_Tuple_impl.393" }
%"struct.std::_Tuple_impl.393" = type { %"struct.std::_Head_base.396" }
%"struct.std::_Head_base.396" = type { ptr }
%"class.llvm::DenseMap.397" = type <{ ptr, i32, i32, i32, [4 x i8] }>
%"class.llvm::SmallVector.400" = type { %"class.llvm::SmallVectorImpl.401", %"struct.llvm::SmallVectorStorage.404" }
%"class.llvm::SmallVectorImpl.401" = type { %"class.llvm::SmallVectorTemplateBase.402" }
%"class.llvm::SmallVectorTemplateBase.402" = type { %"class.llvm::SmallVectorTemplateCommon.403" }
%"class.llvm::SmallVectorTemplateCommon.403" = type { %"class.llvm::SmallVectorBase" }
%"struct.llvm::SmallVectorStorage.404" = type { [16 x i8] }
%"class.llvm::SmallVector.405" = type { %"class.llvm::SmallVectorImpl.406", %"struct.llvm::SmallVectorStorage.409" }
%"class.llvm::SmallVectorImpl.406" = type { %"class.llvm::SmallVectorTemplateBase.407" }
%"class.llvm::SmallVectorTemplateBase.407" = type { %"class.llvm::SmallVectorTemplateCommon.408" }
%"class.llvm::SmallVectorTemplateCommon.408" = type { %"class.llvm::SmallVectorBase" }
%"struct.llvm::SmallVectorStorage.409" = type { [8 x i8] }
%"class.llvm::StackMaps" = type { ptr, %"class.std::vector.410", %"class.llvm::MapVector.415", %"class.llvm::MapVector.424" }
%"class.std::vector.410" = type { %"struct.std::_Vector_base.411" }
%"struct.std::_Vector_base.411" = type { %"struct.std::_Vector_base<llvm::StackMaps::CallsiteInfo, std::allocator<llvm::StackMaps::CallsiteInfo>>::_Vector_impl" }
%"struct.std::_Vector_base<llvm::StackMaps::CallsiteInfo, std::allocator<llvm::StackMaps::CallsiteInfo>>::_Vector_impl" = type { %"struct.std::_Vector_base<llvm::StackMaps::CallsiteInfo, std::allocator<llvm::StackMaps::CallsiteInfo>>::_Vector_impl_data" }
%"struct.std::_Vector_base<llvm::StackMaps::CallsiteInfo, std::allocator<llvm::StackMaps::CallsiteInfo>>::_Vector_impl_data" = type { ptr, ptr, ptr }
%"class.llvm::MapVector.415" = type { %"class.llvm::DenseMap.416", %"class.llvm::SmallVector.419" }
%"class.llvm::DenseMap.416" = type <{ ptr, i32, i32, i32, [4 x i8] }>
%"class.llvm::SmallVector.419" = type { %"class.llvm::SmallVectorImpl.420" }
%"class.llvm::SmallVectorImpl.420" = type { %"class.llvm::SmallVectorTemplateBase.421" }
%"class.llvm::SmallVectorTemplateBase.421" = type { %"class.llvm::SmallVectorTemplateCommon.422" }
%"class.llvm::SmallVectorTemplateCommon.422" = type { %"class.llvm::SmallVectorBase" }
%"class.llvm::MapVector.424" = type { %"class.llvm::DenseMap.367", %"class.llvm::SmallVector.425" }
%"class.llvm::SmallVector.425" = type { %"class.llvm::SmallVectorImpl.426" }
%"class.llvm::SmallVectorImpl.426" = type { %"class.llvm::SmallVectorTemplateBase.427" }
%"class.llvm::SmallVectorTemplateBase.427" = type { %"class.llvm::SmallVectorTemplateCommon.428" }
%"class.llvm::SmallVectorTemplateCommon.428" = type { %"class.llvm::SmallVectorBase" }
%"class.std::unique_ptr.430" = type { %"struct.std::__uniq_ptr_data.431" }
%"struct.std::__uniq_ptr_data.431" = type { %"class.std::__uniq_ptr_impl.432" }
%"class.std::__uniq_ptr_impl.432" = type { %"class.std::tuple.433" }
%"class.std::tuple.433" = type { %"struct.std::_Tuple_impl.434" }
%"struct.std::_Tuple_impl.434" = type { %"struct.std::_Head_base.437" }
%"struct.std::_Head_base.437" = type { ptr }
%"class.std::unique_ptr.438" = type { %"struct.std::__uniq_ptr_data.439" }
%"struct.std::__uniq_ptr_data.439" = type { %"class.std::__uniq_ptr_impl.440" }
%"class.std::__uniq_ptr_impl.440" = type { %"class.std::tuple.441" }
%"class.std::tuple.441" = type { %"struct.std::_Tuple_impl.442" }
%"struct.std::_Tuple_impl.442" = type { %"struct.std::_Head_base.445" }
%"struct.std::_Head_base.445" = type { ptr }
%"class.std::unique_ptr.446" = type { %"struct.std::__uniq_ptr_data.447" }
%"struct.std::__uniq_ptr_data.447" = type { %"class.std::__uniq_ptr_impl.448" }
%"class.std::__uniq_ptr_impl.448" = type { %"class.std::tuple.449" }
%"class.std::tuple.449" = type { %"struct.std::_Tuple_impl.450" }
%"struct.std::_Tuple_impl.450" = type { %"struct.std::_Head_base.453" }
%"struct.std::_Head_base.453" = type { ptr }
%"class.llvm::SmallVector.454" = type { %"class.llvm::SmallVectorImpl.455", %"struct.llvm::SmallVectorStorage.458" }
%"class.llvm::SmallVectorImpl.455" = type { %"class.llvm::SmallVectorTemplateBase.456" }
%"class.llvm::SmallVectorTemplateBase.456" = type { %"class.llvm::SmallVectorTemplateCommon.457" }
%"class.llvm::SmallVectorTemplateCommon.457" = type { %"class.llvm::SmallVectorBase" }
%"struct.llvm::SmallVectorStorage.458" = type { [160 x i8] }
%"class.llvm::DwarfUnit" = type { %"class.llvm::DIEUnit", i32, ptr, %"class.llvm::BumpPtrAllocatorImpl", ptr, ptr, ptr, ptr, ptr, ptr, %"class.llvm::DenseMap.280", %"class.std::vector.762", %"class.std::vector.767", %"class.llvm::DenseMap.772" }
%"class.llvm::DIEUnit" = type { ptr, %"class.llvm::DIE", ptr, i64 }
%"class.llvm::DIE" = type { %"struct.llvm::IntrusiveBackListNode", %"class.llvm::DIEValueList", i32, i32, i32, i16, i8, %"class.llvm::IntrusiveBackList.756", %"class.llvm::PointerUnion.757" }
%"struct.llvm::IntrusiveBackListNode" = type { %"class.llvm::PointerIntPair.754" }
%"class.llvm::PointerIntPair.754" = type { %"struct.llvm::detail::PunnedPointer.755" }
%"struct.llvm::detail::PunnedPointer.755" = type { [8 x i8] }
%"class.llvm::DIEValueList" = type { %"class.llvm::IntrusiveBackList" }
%"class.llvm::IntrusiveBackList" = type { %"struct.llvm::IntrusiveBackListBase" }
%"struct.llvm::IntrusiveBackListBase" = type { ptr }
%"class.llvm::IntrusiveBackList.756" = type { %"struct.llvm::IntrusiveBackListBase" }
%"class.llvm::PointerUnion.757" = type { %"class.llvm::pointer_union_detail::PointerUnionMembers.758" }
%"class.llvm::pointer_union_detail::PointerUnionMembers.758" = type { %"class.llvm::pointer_union_detail::PointerUnionMembers.759" }
%"class.llvm::pointer_union_detail::PointerUnionMembers.759" = type { %"class.llvm::pointer_union_detail::PointerUnionMembers.760" }
%"class.llvm::pointer_union_detail::PointerUnionMembers.760" = type { %"class.llvm::PointerIntPair.761" }
%"class.llvm::PointerIntPair.761" = type { %"struct.llvm::detail::PunnedPointer" }
%"class.std::vector.762" = type { %"struct.std::_Vector_base.763" }
%"struct.std::_Vector_base.763" = type { %"struct.std::_Vector_base<llvm::DIEBlock *, std::allocator<llvm::DIEBlock *>>::_Vector_impl" }
%"struct.std::_Vector_base<llvm::DIEBlock *, std::allocator<llvm::DIEBlock *>>::_Vector_impl" = type { %"struct.std::_Vector_base<llvm::DIEBlock *, std::allocator<llvm::DIEBlock *>>::_Vector_impl_data" }
%"struct.std::_Vector_base<llvm::DIEBlock *, std::allocator<llvm::DIEBlock *>>::_Vector_impl_data" = type { ptr, ptr, ptr }
%"class.std::vector.767" = type { %"struct.std::_Vector_base.768" }
%"struct.std::_Vector_base.768" = type { %"struct.std::_Vector_base<llvm::DIELoc *, std::allocator<llvm::DIELoc *>>::_Vector_impl" }
%"struct.std::_Vector_base<llvm::DIELoc *, std::allocator<llvm::DIELoc *>>::_Vector_impl" = type { %"struct.std::_Vector_base<llvm::DIELoc *, std::allocator<llvm::DIELoc *>>::_Vector_impl_data" }
%"struct.std::_Vector_base<llvm::DIELoc *, std::allocator<llvm::DIELoc *>>::_Vector_impl_data" = type { ptr, ptr, ptr }
%"class.llvm::DenseMap.772" = type <{ ptr, i32, i32, i32, [4 x i8] }>

; Function Attrs: mustprogress nounwind uwtable
define linkonce_odr hidden noundef nonnull align 8 dereferenceable(8) ptr @_ZNSt10_Head_baseILm0EPN4llvm10MCStreamerELb0EE7_M_headERKS3_(ptr noundef nonnull align 8 dereferenceable(8) %0) #1 comdat align 2 {
  %2 = alloca ptr, align 8
  store ptr %0, ptr %2, align 8
  %3 = load ptr, ptr %2, align 8
  %4 = getelementptr inbounds nuw %"struct.std::_Head_base.356", ptr %3, i32 0, i32 0
  ret ptr %4
}

; Function Attrs: mustprogress nounwind uwtable
define linkonce_odr hidden noundef nonnull align 8 dereferenceable(8) ptr @_ZNSt11_Tuple_implILm0EJPN4llvm10MCStreamerESt14default_deleteIS1_EEE7_M_headERKS5_(ptr noundef nonnull align 8 dereferenceable(8) %0) #1 comdat align 2 {
  %2 = alloca ptr, align 8
  store ptr %0, ptr %2, align 8
  %3 = load ptr, ptr %2, align 8
  %4 = call noundef nonnull align 8 dereferenceable(8) ptr @_ZNSt10_Head_baseILm0EPN4llvm10MCStreamerELb0EE7_M_headERKS3_(ptr noundef nonnull align 8 dereferenceable(8) %3) #2
  ret ptr %4
}

; Function Attrs: mustprogress nounwind uwtable
define linkonce_odr noundef nonnull align 8 dereferenceable(8) ptr @_ZSt12__get_helperILm0EPN4llvm10MCStreamerEJSt14default_deleteIS1_EEERKT0_RKSt11_Tuple_implIXT_EJS5_DpT1_EE(ptr noundef nonnull align 8 dereferenceable(8) %0) #1 comdat {
  %2 = alloca ptr, align 8
  store ptr %0, ptr %2, align 8
  %3 = load ptr, ptr %2, align 8
  %4 = call noundef nonnull align 8 dereferenceable(8) ptr @_ZNSt11_Tuple_implILm0EJPN4llvm10MCStreamerESt14default_deleteIS1_EEE7_M_headERKS5_(ptr noundef nonnull align 8 dereferenceable(8) %3) #2
  ret ptr %4
}

; Function Attrs: mustprogress nounwind uwtable
define linkonce_odr noundef nonnull align 8 dereferenceable(8) ptr @_ZSt3getILm0EJPN4llvm10MCStreamerESt14default_deleteIS1_EEERKNSt13tuple_elementIXT_ESt5tupleIJDpT0_EEE4typeERKS9_(ptr noundef nonnull align 8 dereferenceable(8) %0) #1 comdat {
  %2 = alloca ptr, align 8
  store ptr %0, ptr %2, align 8
  %3 = load ptr, ptr %2, align 8
  %4 = call noundef nonnull align 8 dereferenceable(8) ptr @_ZSt12__get_helperILm0EPN4llvm10MCStreamerEJSt14default_deleteIS1_EEERKT0_RKSt11_Tuple_implIXT_EJS5_DpT1_EE(ptr noundef nonnull align 8 dereferenceable(8) %3) #2
  ret ptr %4
}

; Function Attrs: mustprogress nounwind uwtable
define linkonce_odr hidden noundef ptr @_ZNKSt15__uniq_ptr_implIN4llvm10MCStreamerESt14default_deleteIS1_EE6_M_ptrEv(ptr noundef nonnull align 8 dereferenceable(8) %0) #1 comdat align 2 {
  %2 = alloca ptr, align 8
  store ptr %0, ptr %2, align 8
  %3 = load ptr, ptr %2, align 8
  %4 = getelementptr inbounds nuw %"class.std::__uniq_ptr_impl.351", ptr %3, i32 0, i32 0
  %5 = call noundef nonnull align 8 dereferenceable(8) ptr @_ZSt3getILm0EJPN4llvm10MCStreamerESt14default_deleteIS1_EEERKNSt13tuple_elementIXT_ESt5tupleIJDpT0_EEE4typeERKS9_(ptr noundef nonnull align 8 dereferenceable(8) %4) #2
  %6 = load ptr, ptr %5, align 8
  ret ptr %6
}

; Function Attrs: mustprogress nounwind uwtable
define linkonce_odr hidden noundef ptr @_ZNKSt10unique_ptrIN4llvm10MCStreamerESt14default_deleteIS1_EE3getEv(ptr noundef nonnull align 8 dereferenceable(8) %0) #1 comdat align 2 {
  %2 = alloca ptr, align 8
  store ptr %0, ptr %2, align 8
  %3 = load ptr, ptr %2, align 8
  %4 = getelementptr inbounds nuw %"class.std::unique_ptr.349", ptr %3, i32 0, i32 0
  %5 = call noundef ptr @_ZNKSt15__uniq_ptr_implIN4llvm10MCStreamerESt14default_deleteIS1_EE6_M_ptrEv(ptr noundef nonnull align 8 dereferenceable(8) %4) #2
  ret ptr %5
}

; Function Attrs: mustprogress nounwind uwtable
define linkonce_odr hidden noundef i32 @_ZNK4llvm9DwarfUnit11getUniqueIDEv(ptr noundef nonnull align 8 dereferenceable(328) %0) #1 comdat align 2 {
  %2 = alloca ptr, align 8
  store ptr %0, ptr %2, align 8
  %3 = load ptr, ptr %2, align 8
  %4 = getelementptr inbounds nuw %"class.llvm::DwarfUnit", ptr %3, i32 0, i32 1
  %5 = load i32, ptr %4, align 8
  ret i32 %5
}

; Function Attrs: mustprogress nounwind uwtable
define linkonce_odr hidden noundef ptr @_ZNKSt10unique_ptrIN4llvm10MCStreamerESt14default_deleteIS1_EEptEv(ptr noundef nonnull align 8 dereferenceable(8) %0) #1 comdat align 2 {
  %2 = alloca ptr, align 8
  store ptr %0, ptr %2, align 8
  %3 = load ptr, ptr %2, align 8
  %4 = call noundef ptr @_ZNKSt10unique_ptrIN4llvm10MCStreamerESt14default_deleteIS1_EE3getEv(ptr noundef nonnull align 8 dereferenceable(8) %3) #2
  ret ptr %4
}

; Function Attrs: mustprogress nounwind uwtable
define dso_local noundef i32 @_ZN4llvm10DwarfDebug33getDwarfCompileUnitIDForLineTableERKNS_16DwarfCompileUnitE(ptr noundef nonnull align 8 dereferenceable(5828) %0, ptr noundef nonnull align 8 dereferenceable(696) %1) #1 align 2 {
  %3 = alloca i32, align 4
  %4 = alloca ptr, align 8
  %5 = alloca ptr, align 8
  store ptr %0, ptr %4, align 8
  store ptr %1, ptr %5, align 8
  %6 = load ptr, ptr %4, align 8
  %7 = getelementptr inbounds nuw %"class.llvm::DebugHandlerBase", ptr %6, i32 0, i32 1
  %8 = load ptr, ptr %7, align 8
  %9 = getelementptr inbounds nuw %"class.llvm::AsmPrinter", ptr %8, i32 0, i32 4
  %10 = call noundef ptr @_ZNKSt10unique_ptrIN4llvm10MCStreamerESt14default_deleteIS1_EEptEv(ptr noundef nonnull align 8 dereferenceable(8) %9) #2
  %11 = load ptr, ptr %10, align 8
  %12 = getelementptr inbounds ptr, ptr %11, i64 13
  %13 = load ptr, ptr %12, align 8
  %14 = call noundef zeroext i1 %13(ptr noundef nonnull align 8 dereferenceable(288) %10)
  br i1 %14, label %15, label %16

15:                                               ; preds = %2
  store i32 0, ptr %3, align 4
  br label %19

16:                                               ; preds = %2
  %17 = load ptr, ptr %5, align 8
  %18 = call noundef i32 @_ZNK4llvm9DwarfUnit11getUniqueIDEv(ptr noundef nonnull align 8 dereferenceable(328) %17)
  store i32 %18, ptr %3, align 4
  br label %19

19:                                               ; preds = %16, %15
  %20 = load i32, ptr %3, align 4
  ret i32 %20
}