; Function Attrs: mustprogress nounwind uwtable
define dso_local noundef i32 @_ZN4llvm10DwarfDebug33getDwarfCompileUnitIDForLineTableERKNS_16DwarfCompileUnitE(ptr noundef nonnull readonly align 8 captures(none) dereferenceable(5828) %0, ptr noundef nonnull readonly align 8 captures(none) dereferenceable(696) %1) local_unnamed_addr #0 align 2 {
  %3 = getelementptr inbounds nuw i8, ptr %0, i64 8
  %4 = load ptr, ptr %3, align 8
  %5 = getelementptr inbounds nuw i8, ptr %4, i64 80
  %6 = load ptr, ptr %5, align 8
  %7 = load ptr, ptr %6, align 8
  %8 = getelementptr inbounds nuw i8, ptr %7, i64 104
  %9 = load ptr, ptr %8, align 8
  %10 = tail call noundef zeroext i1 %9(ptr noundef nonnull align 8 dereferenceable(288) %6) #27
  %11 = getelementptr inbounds nuw i8, ptr %1, i64 72
  %12 = load i32, ptr %11, align 8
  %.0 = select i1 %10, i32 0, i32 %12
  ret i32 %.0
}